target datalayout = "e-m:e-p270:32:32-p271:32:32-p272:64:64-i64:64-i128:128-f80:128-n8:16:32:64-S128"
target triple = "x86_64-pc-linux-gnu"

%struct.nameData = type { [64 x i8] }
%struct.HeapTupleData = type { i32, %struct.ItemPointerData, i32, ptr }
%struct.ItemPointerData = type { %struct.BlockIdData, i16 }
%struct.BlockIdData = type { i16, i16 }
%struct.HeapTupleHeaderData = type { %union.anon, %struct.ItemPointerData, i16, i16, i8, [0 x i8] }
%union.anon = type { %struct.HeapTupleFields }
%struct.HeapTupleFields = type { i32, i32, %union.anon.1 }
%union.anon.1 = type { i32 }
%struct.FormData_pg_attribute = type { i32, %struct.nameData, i32, i16, i16, i32, i16, i8, i8, i8, i8, i8, i8, i8, i8, i8, i8, i8, i16, i32 }

@.str.1 = private unnamed_addr constant [6 x i8] c"acl.c\00", align 1
@.str.67 = private unnamed_addr constant [44 x i8] c"column \22%s\22 of relation \22%s\22 does not exist\00", align 1
@__func__.convert_column_name = private unnamed_addr constant [20 x i8] c"convert_column_name\00", align 1

; Function Attrs: inlinehint nounwind uwtable
define internal i64 @PointerGetDatum(ptr noundef %0) #5 {
  %2 = alloca ptr, align 8
  store ptr %0, ptr %2, align 8
  %3 = load ptr, ptr %2, align 8
  %4 = ptrtoint ptr %3 to i64
  ret i64 %4
}

; Function Attrs: inlinehint nounwind uwtable
define internal ptr @GETSTRUCT(ptr noundef %0) #5 {
  %2 = alloca ptr, align 8
  store ptr %0, ptr %2, align 8
  %3 = load ptr, ptr %2, align 8
  %4 = getelementptr inbounds nuw %struct.HeapTupleData, ptr %3, i32 0, i32 3
  %5 = load ptr, ptr %4, align 8
  %6 = load ptr, ptr %2, align 8
  %7 = getelementptr inbounds nuw %struct.HeapTupleData, ptr %6, i32 0, i32 3
  %8 = load ptr, ptr %7, align 8
  %9 = getelementptr inbounds nuw %struct.HeapTupleHeaderData, ptr %8, i32 0, i32 4
  %10 = load i8, ptr %9, align 2
  %11 = zext i8 %10 to i32
  %12 = sext i32 %11 to i64
  %13 = getelementptr inbounds i8, ptr %5, i64 %12
  ret ptr %13
}

; Function Attrs: inlinehint nounwind uwtable
define internal i64 @CStringGetDatum(ptr noundef %0) #5 {
  %2 = alloca ptr, align 8
  store ptr %0, ptr %2, align 8
  %3 = load ptr, ptr %2, align 8
  %4 = call i64 @PointerGetDatum(ptr noundef %3)
  ret i64 %4
}

; Function Attrs: inlinehint nounwind uwtable
define internal i64 @ObjectIdGetDatum(i32 noundef %0) #5 {
  %2 = alloca i32, align 4
  store i32 %0, ptr %2, align 4
  %3 = load i32, ptr %2, align 4
  %4 = zext i32 %3 to i64
  ret i64 %4
}

; Function Attrs: nounwind uwtable
define internal signext i16 @convert_column_name(i32 noundef %0, ptr noundef %1) #0 {
  %3 = alloca i32, align 4
  %4 = alloca ptr, align 8
  %5 = alloca ptr, align 8
  %6 = alloca ptr, align 8
  %7 = alloca i16, align 2
  %8 = alloca ptr, align 8
  %9 = alloca ptr, align 8
  store i32 %0, ptr %3, align 4
  store ptr %1, ptr %4, align 8
  call void @llvm.lifetime.start.p0(i64 8, ptr %5) #9
  call void @llvm.lifetime.start.p0(i64 8, ptr %6) #9
  call void @llvm.lifetime.start.p0(i64 2, ptr %7) #9
  %10 = load ptr, ptr %4, align 8
  %11 = call ptr @text_to_cstring(ptr noundef %10)
  store ptr %11, ptr %5, align 8
  %12 = load i32, ptr %3, align 4
  %13 = call i64 @ObjectIdGetDatum(i32 noundef %12)
  %14 = load ptr, ptr %5, align 8
  %15 = call i64 @CStringGetDatum(ptr noundef %14)
  %16 = call ptr @SearchSysCache2(i32 noundef 6, i64 noundef %13, i64 noundef %15)
  store ptr %16, ptr %6, align 8
  %17 = load ptr, ptr %6, align 8
  %18 = icmp ne ptr %17, null
  br i1 %18, label %19, label %33

19:                                               ; preds = %2
  call void @llvm.lifetime.start.p0(i64 8, ptr %8) #9
  %20 = load ptr, ptr %6, align 8
  %21 = call ptr @GETSTRUCT(ptr noundef %20)
  store ptr %21, ptr %8, align 8
  %22 = load ptr, ptr %8, align 8
  %23 = getelementptr inbounds nuw %struct.FormData_pg_attribute, ptr %22, i32 0, i32 16
  %24 = load i8, ptr %23, align 1, !range !12, !noundef !13
  %25 = trunc i8 %24 to i1
  br i1 %25, label %26, label %27

26:                                               ; preds = %19
  store i16 0, ptr %7, align 2
  br label %31

27:                                               ; preds = %19
  %28 = load ptr, ptr %8, align 8
  %29 = getelementptr inbounds nuw %struct.FormData_pg_attribute, ptr %28, i32 0, i32 4
  %30 = load i16, ptr %29, align 2
  store i16 %30, ptr %7, align 2
  br label %31

31:                                               ; preds = %27, %26
  %32 = load ptr, ptr %6, align 8
  call void @ReleaseSysCache(ptr noundef %32)
  call void @llvm.lifetime.end.p0(i64 8, ptr %8) #9
  br label %53

33:                                               ; preds = %2
  call void @llvm.lifetime.start.p0(i64 8, ptr %9) #9
  %34 = load i32, ptr %3, align 4
  %35 = call ptr @get_rel_name(i32 noundef %34)
  store ptr %35, ptr %9, align 8
  %36 = load ptr, ptr %9, align 8
  %37 = icmp ne ptr %36, null
  br i1 %37, label %38, label %52

38:                                               ; preds = %33
  br label %39

39:                                               ; preds = %38
  br i1 true, label %40, label %42

40:                                               ; preds = %39
  %41 = call zeroext i1 @errstart_cold(i32 noundef 21, ptr noundef null) #10
  br i1 %41, label %44, label %49

42:                                               ; preds = %39
  %43 = call zeroext i1 @errstart(i32 noundef 21, ptr noundef null)
  br i1 %43, label %44, label %49

44:                                               ; preds = %42, %40
  %45 = call i32 @errcode(i32 noundef 50360452)
  %46 = load ptr, ptr %5, align 8
  %47 = load ptr, ptr %9, align 8
  %48 = call i32 (ptr, ...) @errmsg(ptr noundef @.str.67, ptr noundef %46, ptr noundef %47)
  call void @errfinish(ptr noundef @.str.1, i32 noundef 2922, ptr noundef @__func__.convert_column_name)
  br label %49

49:                                               ; preds = %44, %42, %40
  unreachable

50:                                               ; No predecessors!
  br label %51

51:                                               ; preds = %50
  br label %52

52:                                               ; preds = %51, %33
  store i16 0, ptr %7, align 2
  call void @llvm.lifetime.end.p0(i64 8, ptr %9) #9
  br label %53

53:                                               ; preds = %52, %31
  %54 = load ptr, ptr %5, align 8
  call void @pfree(ptr noundef %54)
  %55 = load i16, ptr %7, align 2
  call void @llvm.lifetime.end.p0(i64 2, ptr %7) #9
  call void @llvm.lifetime.end.p0(i64 8, ptr %6) #9
  call void @llvm.lifetime.end.p0(i64 8, ptr %5) #9
  ret i16 %55
}