; Function Attrs: nounwind uwtable
define internal fastcc signext i16 @convert_column_name(i32 noundef %0, ptr noundef %1) unnamed_addr #0 {
  %3 = tail call ptr @text_to_cstring(ptr noundef %1) #14
  %4 = zext i32 %0 to i64
  %5 = ptrtoint ptr %3 to i64
  %6 = tail call ptr @SearchSysCache2(i32 noundef 6, i64 noundef %4, i64 noundef %5) #14
  %.not = icmp eq ptr %6, null
  br i1 %.not, label %20, label %7

7:                                                ; preds = %2
  %8 = getelementptr i8, ptr %6, i64 16
  %.val = load ptr, ptr %8, align 8
  %9 = getelementptr inbounds nuw i8, ptr %.val, i64 22
  %10 = load i8, ptr %9, align 2
  %11 = zext i8 %10 to i64
  %12 = getelementptr inbounds nuw i8, ptr %.val, i64 %11
  %13 = getelementptr inbounds nuw i8, ptr %12, i64 91
  %14 = load i8, ptr %13, align 1, !range !27, !noundef !28
  %15 = trunc nuw i8 %14 to i1
  br i1 %15, label %19, label %16

16:                                               ; preds = %7
  %17 = getelementptr inbounds nuw i8, ptr %12, i64 74
  %18 = load i16, ptr %17, align 2
  br label %19

19:                                               ; preds = %7, %16
  %.0 = phi i16 [ %18, %16 ], [ 0, %7 ]
  tail call void @ReleaseSysCache(ptr noundef nonnull %6) #14
  br label %26

20:                                               ; preds = %2
  %21 = tail call ptr @get_rel_name(i32 noundef %0) #14
  %.not15 = icmp eq ptr %21, null
  br i1 %.not15, label %26, label %22

22:                                               ; preds = %20
  %23 = tail call zeroext i1 @errstart_cold(i32 noundef 21, ptr noundef null) #15
  tail call void @llvm.assume(i1 %23)
  %24 = tail call i32 @errcode(i32 noundef 50360452) #14
  %25 = tail call i32 (ptr, ...) @errmsg(ptr noundef nonnull @.str.67, ptr noundef %3, ptr noundef nonnull %21) #14
  tail call void @errfinish(ptr noundef nonnull @.str.1, i32 noundef 2922, ptr noundef nonnull @__func__.convert_column_name) #14
  unreachable

26:                                               ; preds = %20, %19
  %.1 = phi i16 [ %.0, %19 ], [ 0, %20 ]
  tail call void @pfree(ptr noundef %3) #14
  ret i16 %.1
}